; Function Attrs: nounwind uwtable
define i32 @IDASetMaxNonlinIters(ptr noundef readonly %0, i32 noundef %1) local_unnamed_addr #0 {
  %3 = icmp eq ptr %0, null
  br i1 %3, label %4, label %5

4:                                                ; preds = %2
  tail call void (ptr, i32, i32, ptr, ptr, ptr, ...) @IDAProcessError(ptr noundef null, i32 noundef -20, i32 noundef 481, ptr noundef nonnull @__func__.IDASetMaxNonlinIters, ptr noundef nonnull @.str, ptr noundef nonnull @.str.1) #9
  br label %25

5:                                                ; preds = %2
  %6 = getelementptr inbounds nuw i8, ptr %0, i64 156
  %7 = load i32, ptr %6, align 4
  %.not = icmp eq i32 %7, 0
  br i1 %.not, label %.critedge, label %8

8:                                                ; preds = %5
  %9 = getelementptr inbounds nuw i8, ptr %0, i64 164
  %10 = load i32, ptr %9, align 4
  %11 = icmp eq i32 %10, 1
  br i1 %11, label %12, label %.critedge

12:                                               ; preds = %8
  %13 = getelementptr inbounds nuw i8, ptr %0, i64 1752
  %14 = load ptr, ptr %13, align 8
  %15 = icmp eq ptr %14, null
  br i1 %15, label %16, label %17

16:                                               ; preds = %12
  tail call void (ptr, i32, i32, ptr, ptr, ptr, ...) @IDAProcessError(ptr noundef null, i32 noundef -21, i32 noundef 495, ptr noundef nonnull @__func__.IDASetMaxNonlinIters, ptr noundef nonnull @.str, ptr noundef nonnull @.str.8) #9
  br label %25

17:                                               ; preds = %12
  %18 = tail call i32 @SUNNonlinSolSetMaxIters(ptr noundef nonnull %14, i32 noundef %1) #9
  br label %25

.critedge:                                        ; preds = %5, %8
  %19 = getelementptr inbounds nuw i8, ptr %0, i64 1736
  %20 = load ptr, ptr %19, align 8
  %21 = icmp eq ptr %20, null
  br i1 %21, label %22, label %23

22:                                               ; preds = %.critedge
  tail call void (ptr, i32, i32, ptr, ptr, ptr, ...) @IDAProcessError(ptr noundef null, i32 noundef -21, i32 noundef 507, ptr noundef nonnull @__func__.IDASetMaxNonlinIters, ptr noundef nonnull @.str, ptr noundef nonnull @.str.8) #9
  br label %25

23:                                               ; preds = %.critedge
  %24 = tail call i32 @SUNNonlinSolSetMaxIters(ptr noundef nonnull %20, i32 noundef %1) #9
  br label %25

25:                                               ; preds = %23, %22, %17, %16, %4
  %.0 = phi i32 [ -20, %4 ], [ -21, %16 ], [ %18, %17 ], [ -21, %22 ], [ %24, %23 ]
  ret i32 %.0
}